ccollections
defaultdict
p0
(g0
tp1
Rp2
Vhttps://movie.douban.com/subject/25949779/?from=subject-page
p3
g0
(tRp4
Vhttps://movie.douban.com/subject/26613426/?from=subject-page
p5
F0.7071067811865475
sVhttps://movie.douban.com/subject/25908008/?from=subject-page
p6
F0.7071067811865475
sVhttps://movie.douban.com/subject/25912244/?from=subject-page
p7
F1.0
sVhttps://movie.douban.com/subject/25911728/?from=subject-page
p8
F0.7071067811865475
sVhttps://movie.douban.com/subject/25909168/?from=subject-page
p9
F0.5
sVhttps://movie.douban.com/subject/25949774/?from=subject-page
p10
F0.7071067811865475
sVhttps://movie.douban.com/subject/26614149/?from=subject-page
p11
F0.7071067811865475
sVhttps://movie.douban.com/subject/25949775/?from=subject-page
p12
F1.0
sVhttps://movie.douban.com/subject/26611670/?from=subject-page
p13
F0.7071067811865475
sVhttps://movie.douban.com/subject/26694148/?from=subject-page
p14
F0.7071067811865475
sVhttps://movie.douban.com/subject/26292751/?from=subject-page
p15
F0.7071067811865475
sVhttps://movie.douban.com/subject/26611668/?from=subject-page
p16
F0.7071067811865475
sVhttps://movie.douban.com/subject/25947525/?from=subject-page
p17
F0.7071067811865475
sVhttps://movie.douban.com/subject/25950238/?from=subject-page
p18
F0.7071067811865475
sVhttps://movie.douban.com/subject/25895242/?from=subject-page
p19
F0.7071067811865475
sVhttps://movie.douban.com/subject/26594557/?from=subject-page
p20
F0.7071067811865475
ssVhttps://movie.douban.com/subject/25894460/?from=subject-page
p21
g0
(tRp22
Vhttps://movie.douban.com/subject/26873657/?from=subject-page
p23
F1.0
sVhttps://movie.douban.com/subject/2155284/?from=subject-page
p24
F1.0
sVhttps://movie.douban.com/subject/25949777/?from=subject-page
p25
F1.0
sVhttps://movie.douban.com/subject/25982611/?from=subject-page
p26
F1.0
sVhttps://movie.douban.com/subject/26261184/?from=subject-page
p27
F1.0
sVhttps://movie.douban.com/subject/25909168/?from=subject-page
p28
F0.7071067811865475
sVhttps://movie.douban.com/subject/26604536/?from=subject-page
p29
F1.0
sVhttps://movie.douban.com/subject/25949776/?from=subject-page
p30
F1.0
sVhttps://movie.douban.com/subject/25908007/?from=subject-page
p31
F1.0
ssg11
g0
(tRp32
g3
F0.7071067811865475
sg7
F0.7071067811865475
sg8
F1.0
sg12
F0.7071067811865475
sg14
F1.0
sg9
F0.7071067811865475
sg17
F1.0
sg19
F1.0
sg10
F1.0
ssg24
g0
(tRp33
g23
F1.0
sg21
F1.0
sg26
F1.0
sg25
F1.0
sg27
F1.0
sg28
F0.7071067811865475
sg29
F1.0
sg30
F1.0
sg31
F1.0
ssg6
g0
(tRp34
g5
F1.0
sVhttps://movie.douban.com/subject/25949779/?from=subject-page
p35
F0.7071067811865475
sVhttps://movie.douban.com/subject/25912244/?from=subject-page
p36
F0.7071067811865475
sVhttps://movie.douban.com/subject/25949775/?from=subject-page
p37
F0.7071067811865475
sg13
F1.0
sg15
F1.0
sg16
F1.0
sg18
F1.0
sg20
F1.0
ssg13
g0
(tRp38
g5
F1.0
sg35
F0.7071067811865475
sg36
F0.7071067811865475
sg6
F1.0
sg37
F0.7071067811865475
sg15
F1.0
sg16
F1.0
sg18
F1.0
sg20
F1.0
ssg15
g0
(tRp39
g5
F1.0
sg35
F0.7071067811865475
sg36
F0.7071067811865475
sg6
F1.0
sg37
F0.7071067811865475
sg13
F1.0
sg16
F1.0
sg18
F1.0
sg20
F1.0
ssg16
g0
(tRp40
g5
F1.0
sg35
F0.7071067811865475
sg36
F0.7071067811865475
sg6
F1.0
sg37
F0.7071067811865475
sg13
F1.0
sg15
F1.0
sg18
F1.0
sg20
F1.0
ssg29
g0
(tRp41
g23
F1.0
sg21
F1.0
sg24
F1.0
sg25
F1.0
sg26
F1.0
sg27
F1.0
sg28
F0.7071067811865475
sg30
F1.0
sg31
F1.0
ssg19
g0
(tRp42
g3
F0.7071067811865475
sg7
F0.7071067811865475
sg8
F1.0
sg11
F1.0
sg12
F0.7071067811865475
sg14
F1.0
sg9
F0.7071067811865475
sg17
F1.0
sg10
F1.0
ssg5
g0
(tRp43
g35
F0.7071067811865475
sg36
F0.7071067811865475
sg6
F1.0
sg37
F0.7071067811865475
sg13
F1.0
sg15
F1.0
sg16
F1.0
sg18
F1.0
sg20
F1.0
ssg14
g0
(tRp44
g3
F0.7071067811865475
sg7
F0.7071067811865475
sg8
F1.0
sg11
F1.0
sg12
F0.7071067811865475
sg9
F0.7071067811865475
sg17
F1.0
sg19
F1.0
sg10
F1.0
ssg23
g0
(tRp45
g21
F1.0
sg24
F1.0
sg25
F1.0
sg26
F1.0
sg27
F1.0
sg28
F0.7071067811865475
sg29
F1.0
sg30
F1.0
sg31
F1.0
ssg8
g0
(tRp46
g3
F0.7071067811865475
sg7
F0.7071067811865475
sg11
F1.0
sg12
F0.7071067811865475
sg14
F1.0
sg9
F0.7071067811865475
sg17
F1.0
sg19
F1.0
sg10
F1.0
ssg31
g0
(tRp47
g23
F1.0
sg21
F1.0
sg24
F1.0
sg25
F1.0
sg26
F1.0
sg27
F1.0
sg28
F0.7071067811865475
sg29
F1.0
sg30
F1.0
ssg12
g0
(tRp48
g5
F0.7071067811865475
sg3
F1.0
sg7
F1.0
sg8
F0.7071067811865475
sg9
F0.5
sg10
F0.7071067811865475
sg11
F0.7071067811865475
sg6
F0.7071067811865475
sg13
F0.7071067811865475
sg14
F0.7071067811865475
sg15
F0.7071067811865475
sg16
F0.7071067811865475
sg17
F0.7071067811865475
sg18
F0.7071067811865475
sg19
F0.7071067811865475
sg20
F0.7071067811865475
ssg27
g0
(tRp49
g23
F1.0
sg21
F1.0
sg24
F1.0
sg25
F1.0
sg26
F1.0
sg28
F0.7071067811865475
sg29
F1.0
sg30
F1.0
sg31
F1.0
ssg28
g0
(tRp50
g25
F0.7071067811865475
sg23
F0.7071067811865475
sg30
F0.7071067811865475
sg7
F0.5
sg21
F0.7071067811865475
sg8
F0.7071067811865475
sg24
F0.7071067811865475
sg11
F0.7071067811865475
sg3
F0.5
sg12
F0.5
sg14
F0.7071067811865475
sg26
F0.7071067811865475
sg27
F0.7071067811865475
sg17
F0.7071067811865475
sg29
F0.7071067811865475
sg31
F0.7071067811865475
sg19
F0.7071067811865475
sg10
F0.7071067811865475
ssg17
g0
(tRp51
g3
F0.7071067811865475
sg7
F0.7071067811865475
sg8
F1.0
sg11
F1.0
sg12
F0.7071067811865475
sg14
F1.0
sg9
F0.7071067811865475
sg19
F1.0
sg10
F1.0
ssg18
g0
(tRp52
g5
F1.0
sg35
F0.7071067811865475
sg36
F0.7071067811865475
sg6
F1.0
sg37
F0.7071067811865475
sg13
F1.0
sg15
F1.0
sg16
F1.0
sg20
F1.0
ssg10
g0
(tRp53
g3
F0.7071067811865475
sg7
F0.7071067811865475
sg8
F1.0
sg11
F1.0
sg12
F0.7071067811865475
sg14
F1.0
sg9
F0.7071067811865475
sg17
F1.0
sg19
F1.0
ssg7
g0
(tRp54
g5
F0.7071067811865475
sg3
F1.0
sg10
F0.7071067811865475
sg8
F0.7071067811865475
sg9
F0.5
sg11
F0.7071067811865475
sg6
F0.7071067811865475
sg12
F1.0
sg13
F0.7071067811865475
sg14
F0.7071067811865475
sg15
F0.7071067811865475
sg16
F0.7071067811865475
sg17
F0.7071067811865475
sg18
F0.7071067811865475
sg19
F0.7071067811865475
sg20
F0.7071067811865475
ssg26
g0
(tRp55
g23
F1.0
sg21
F1.0
sg24
F1.0
sg25
F1.0
sg27
F1.0
sg28
F0.7071067811865475
sg29
F1.0
sg30
F1.0
sg31
F1.0
ssg25
g0
(tRp56
g23
F1.0
sg21
F1.0
sg24
F1.0
sg26
F1.0
sg27
F1.0
sg28
F0.7071067811865475
sg29
F1.0
sg30
F1.0
sg31
F1.0
ssg30
g0
(tRp57
g23
F1.0
sg21
F1.0
sg24
F1.0
sg25
F1.0
sg26
F1.0
sg27
F1.0
sg28
F0.7071067811865475
sg29
F1.0
sg31
F1.0
ssg20
g0
(tRp58
g5
F1.0
sg35
F0.7071067811865475
sg36
F0.7071067811865475
sg6
F1.0
sg37
F0.7071067811865475
sg13
F1.0
sg15
F1.0
sg16
F1.0
sg18
F1.0
ss.